; Function Attrs: nounwind uwtable
define dso_local zeroext i1 @is_node_down(ptr noundef %0) local_unnamed_addr #0 {
  %2 = tail call ptr @find_node_record(ptr noundef %0) #15
  %3 = icmp eq ptr %2, null
  br i1 %3, label %4, label %6

4:                                                ; preds = %1
  %5 = tail call i32 (ptr, ...) @error(ptr noundef nonnull @.str.109, ptr noundef %0) #15
  br label %11

6:                                                ; preds = %1
  %7 = getelementptr inbounds nuw i8, ptr %2, i64 320
  %8 = load i32, ptr %7, align 8
  %9 = and i32 %8, 15
  %10 = icmp eq i32 %9, 1
  br label %11

11:                                               ; preds = %6, %4
  %.0 = phi i1 [ false, %4 ], [ %10, %6 ]
  ret i1 %.0
}